csupybot.ircutils
IrcDict
p1
((dp2
S'#bronycub'
p3
(lp4
(lp5
S'BronyCUB \xe2\x80\x93 Le collectif des bronies de la Communaut\xc3\xa9 Urbaine de Bordeaux \xe2\x80\x93 http://bronycub.org \xe2\x80\x93 Brohoof ! /)'
p6
aastRp7
.csupybot.ircutils
IrcDict
p1
((dtRp2
.csupybot.ircutils
IrcDict
p1
((dtRp2
.csupybot.ircutils
IrcSet
p1
((ltRp2
.